Certificate:
    Data:
        Version: 3 (0x2)
        Serial Number:
            6f:c4:93:98:dc:7a:f9:4d:5b:6e:f9:18:1a:b6:6c:c5:29:51:6c:81
        Signature Algorithm: sha256WithRSAEncryption
        Issuer: C=ES, ST=ES, O=UPC, OU=Network Security, CN=CA
        Validity
            Not Before: Mar 18 15:12:26 2025 GMT
            Not After : Mar 18 15:12:26 2026 GMT
        Subject: C=ES, ST=ES, O=UPC, OU=Network Security, CN=127.0.0.1
        Subject Public Key Info:
            Public Key Algorithm: rsaEncryption
                Public-Key: (2048 bit)
                Modulus:
                    00:cf:52:c1:98:38:d2:90:e7:b9:63:3f:30:c1:6c:
                    d1:48:44:26:73:d7:24:e9:fe:99:c4:e6:7f:6a:f9:
                    b6:6b:87:55:f8:df:f4:15:08:d7:1d:ce:24:12:30:
                    0c:58:5b:b1:38:f9:5f:a8:ee:b2:cd:6c:26:2c:17:
                    29:c7:4d:11:93:37:e5:b2:1b:ed:92:0d:e8:22:c0:
                    4d:94:f3:c9:63:2e:3b:9c:b9:d5:95:bb:3a:67:dd:
                    19:b7:9c:c2:6e:e1:3b:59:ce:08:1d:90:4e:66:1a:
                    c7:1d:11:da:b0:5d:68:aa:2a:40:e2:80:e1:5d:4d:
                    b1:c3:17:b7:32:55:9e:81:2e:7d:e5:8b:65:46:9d:
                    10:bc:f8:bb:69:b9:77:94:03:82:a6:6b:b4:96:72:
                    7b:a2:8d:87:4b:69:9d:e3:2c:5f:9f:d0:d4:5d:a2:
                    e5:21:9c:0e:6e:f4:82:20:26:99:eb:1a:09:3e:c9:
                    5f:87:e3:24:72:87:53:d2:a9:09:b9:1d:52:ed:e4:
                    42:e4:ff:89:e5:fb:de:d6:ec:9c:92:f5:07:d6:35:
                    00:03:bc:27:db:c8:f8:f6:d7:87:3e:ad:2f:58:f0:
                    ef:f1:5a:ea:ad:35:af:d6:fc:a0:8f:21:be:3f:85:
                    67:6d:d0:71:92:b5:b6:ca:a1:b4:6d:42:5d:5f:06:
                    2c:2f
                Exponent: 65537 (0x10001)
        X509v3 extensions:
            X509v3 Basic Constraints: 
                CA:FALSE
            X509v3 Subject Key Identifier: 
                31:21:7A:2B:2F:62:CB:06:99:83:D5:77:6F:08:99:D8:F1:4E:41:08
            X509v3 Authority Key Identifier: 
                E8:89:6B:05:CF:8C:82:87:3F:E0:0B:7D:A0:29:1D:0A:71:80:9F:B5
            Authority Information Access: 
                OCSP - URI:http://10.0.2.15
            X509v3 Key Usage: critical
                Digital Signature, Non Repudiation, Key Encipherment, Key Agreement
            X509v3 Extended Key Usage: critical
                TLS Web Server Authentication
            X509v3 Subject Alternative Name: 
                DNS:localhost, IP Address:127.0.0.1
    Signature Algorithm: sha256WithRSAEncryption
    Signature Value:
        98:75:e5:c4:78:42:65:31:43:f7:1b:db:b8:d1:a3:d8:d3:41:
        14:cc:cd:0a:78:12:b6:84:aa:d6:a5:79:a2:0d:6a:17:df:8e:
        ae:fc:3e:91:f0:00:f6:74:00:89:1a:76:ab:19:ab:f1:82:ab:
        29:f0:c1:ea:05:1c:0e:c8:7e:a7:b2:2f:91:02:66:db:06:30:
        05:00:50:6f:86:bb:52:b6:70:23:b0:ae:0c:76:7d:4b:e2:dd:
        6d:d5:7e:11:b5:44:04:37:32:71:1b:61:9d:45:b8:2d:ce:5d:
        d4:5e:9f:27:2d:1a:3f:49:50:cc:f7:c9:cf:40:d0:f5:28:16:
        f5:37:1c:0f:62:c3:01:61:2b:89:30:f3:a1:52:3b:08:59:be:
        1b:7d:d1:2c:cd:c0:a8:17:3c:80:80:ca:58:fd:e0:9f:be:a0:
        b8:1d:a6:de:ad:aa:ce:fb:30:7a:b7:0c:d6:5c:c8:8d:a0:59:
        70:12:a2:69:05:b7:cd:f6:5b:7d:ad:2a:52:10:7a:da:21:a7:
        ed:69:17:dd:a3:8f:6c:7c:0a:be:9c:d1:7d:1e:ff:b5:c2:f3:
        9c:4a:c8:1a:9b:fc:e8:18:ba:42:74:ed:18:9a:c6:e8:ec:15:
        33:96:28:c0:13:93:1b:1f:ec:42:02:c3:ce:99:0b:5c:2e:22:
        07:8e:cf:9f:6d:bb:a7:56:f5:5e:61:84:bd:96:2b:f8:d9:84:
        9b:37:fc:38:39:82:b3:7e:30:bf:ad:e0:2b:62:18:0c:c0:df:
        1a:41:60:d0:ef:a2:39:72:0f:10:78:3f:2f:44:b2:b7:03:af:
        c0:d7:6a:19:24:a7:51:c2:dd:1b:68:ed:62:fa:c3:f4:89:65:
        3e:fc:12:ed:03:0b:2e:71:de:f3:59:e1:69:de:f7:aa:0a:2a:
        4d:1b:e9:8f:7f:27:67:6d:fc:d7:4f:0c:08:ee:52:d4:a1:c5:
        e5:8a:35:68:74:83:5b:16:28:ba:6c:26:f6:2d:75:f8:18:55:
        e6:76:91:20:e6:ba:9d:6e:61:fc:9d:c5:17:1d:03:81:71:ff:
        0c:ef:e4:25:48:2f:8c:39:8f:a5:83:5b:cc:5a:d2:0c:2a:a7:
        eb:89:42:e4:02:c1:56:56:4d:3d:f4:55:03:4a:d0:91:90:f5:
        93:4a:fd:a5:e3:f9:1e:ad:c4:91:4f:ef:3b:52:8f:32:fe:98:
        95:da:5d:f8:80:0e:3f:b2:85:55:ee:31:48:ca:8d:69:d4:23:
        7c:f4:8e:63:b6:27:bc:df:72:fa:81:3b:74:f3:2b:e6:3e:a9:
        17:89:dd:d3:3a:66:03:63:45:39:28:74:40:8b:70:f2:d3:57:
        9e:42:27:43:b8:ab:19:2f
-----BEGIN CERTIFICATE-----
MIIE9jCCAt6gAwIBAgIUb8STmNx6+U1bbvkYGrZsxSlRbIEwDQYJKoZIhvcNAQEL
BQAwUDELMAkGA1UEBhMCRVMxCzAJBgNVBAgMAkVTMQwwCgYDVQQKDANVUEMxGTAX
BgNVBAsMEE5ldHdvcmsgU2VjdXJpdHkxCzAJBgNVBAMMAkNBMB4XDTI1MDMxODE1
MTIyNloXDTI2MDMxODE1MTIyNlowVzELMAkGA1UEBhMCRVMxCzAJBgNVBAgMAkVT
MQwwCgYDVQQKDANVUEMxGTAXBgNVBAsMEE5ldHdvcmsgU2VjdXJpdHkxEjAQBgNV
BAMMCTEyNy4wLjAuMTCCASIwDQYJKoZIhvcNAQEBBQADggEPADCCAQoCggEBAM9S
wZg40pDnuWM/MMFs0UhEJnPXJOn+mcTmf2r5tmuHVfjf9BUI1x3OJBIwDFhbsTj5
X6juss1sJiwXKcdNEZM35bIb7ZIN6CLATZTzyWMuO5y51ZW7OmfdGbecwm7hO1nO
CB2QTmYaxx0R2rBdaKoqQOKA4V1NscMXtzJVnoEufeWLZUadELz4u2m5d5QDgqZr
tJZye6KNh0tpneMsX5/Q1F2i5SGcDm70giAmmesaCT7JX4fjJHKHU9KpCbkdUu3k
QuT/ieX73tbsnJL1B9Y1AAO8J9vI+PbXhz6tL1jw7/Fa6q01r9b8oI8hvj+FZ23Q
cZK1tsqhtG1CXV8GLC8CAwEAAaOBwDCBvTAJBgNVHRMEAjAAMB0GA1UdDgQWBBQx
IXorL2LLBpmD1XdvCJnY8U5BCDAfBgNVHSMEGDAWgBToiWsFz4yChz/gC32gKR0K
cYCftTAsBggrBgEFBQcBAQQgMB4wHAYIKwYBBQUHMAGGEGh0dHA6Ly8xMC4wLjIu
MTUwDgYDVR0PAQH/BAQDAgPoMBYGA1UdJQEB/wQMMAoGCCsGAQUFBwMBMBoGA1Ud
EQQTMBGCCWxvY2FsaG9zdIcEfwAAATANBgkqhkiG9w0BAQsFAAOCAgEAmHXlxHhC
ZTFD9xvbuNGj2NNBFMzNCngStoSq1qV5og1qF9+Orvw+kfAA9nQAiRp2qxmr8YKr
KfDB6gUcDsh+p7IvkQJm2wYwBQBQb4a7UrZwI7CuDHZ9S+LdbdV+EbVEBDcycRth
nUW4Lc5d1F6fJy0aP0lQzPfJz0DQ9SgW9TccD2LDAWEriTDzoVI7CFm+G33RLM3A
qBc8gIDKWP3gn76guB2m3q2qzvswercM1lzIjaBZcBKiaQW3zfZbfa0qUhB62iGn
7WkX3aOPbHwKvpzRfR7/tcLznErIGpv86Bi6QnTtGJrG6OwVM5YowBOTGx/sQgLD
zpkLXC4iB47Pn227p1b1XmGEvZYr+NmEmzf8ODmCs34wv63gK2IYDMDfGkFg0O+i
OXIPEHg/L0SytwOvwNdqGSSnUcLdG2jtYvrD9IllPvwS7QMLLnHe81nhad73qgoq
TRvpj38nZ238108MCO5S1KHF5Yo1aHSDWxYoumwm9i11+BhV5naRIOa6nW5h/J3F
Fx0DgXH/DO/kJUgvjDmPpYNbzFrSDCqn64lC5ALBVlZNPfRVA0rQkZD1k0r9peP5
Hq3EkU/vO1KPMv6Yldpd+IAOP7KFVe4xSMqNadQjfPSOY7YnvN9y+oE7dPMr5j6p
F4nd0zpmA2NFOSh0QItw8tNXnkInQ7irGS8=
-----END CERTIFICATE-----
